; Function Attrs: mustprogress nofree norecurse nosync nounwind willreturn memory(read, inaccessiblemem: none) uwtable
define hidden noundef i32 @_ZN13hilbert_basis16get_num_nonzerosERK6vectorI13checked_int64ILb1EELb1EjE(ptr nocapture noundef nonnull readnone align 8 dereferenceable(127) %this, ptr nocapture noundef nonnull readonly align 8 dereferenceable(8) %ineq) local_unnamed_addr #8 align 2 {
entry:
  %0 = load ptr, ptr %ineq, align 8
  %cmp.i = icmp eq ptr %0, null
  br i1 %cmp.i, label %for.end, label %entry.split

entry.split:                                      ; preds = %entry
  %arrayidx.i = getelementptr inbounds i8, ptr %0, i64 -4
  %1 = load i32, ptr %arrayidx.i, align 4
  %cmp7.not = icmp eq i32 %1, 0
  br i1 %cmp7.not, label %for.end, label %for.body.preheader

for.body.preheader:                               ; preds = %entry.split
  %wide.trip.count = zext i32 %1 to i64
  br label %for.body

for.body:                                         ; preds = %for.body.preheader, %for.body
  %indvars.iv = phi i64 [ 0, %for.body.preheader ], [ %indvars.iv.next, %for.body ]
  %count.08 = phi i32 [ 0, %for.body.preheader ], [ %spec.select, %for.body ]
  %arrayidx.i5 = getelementptr inbounds %class.checked_int64, ptr %0, i64 %indvars.iv
  %2 = load i64, ptr %arrayidx.i5, align 8
  %cmp.i6 = icmp ne i64 %2, 0
  %inc = zext i1 %cmp.i6 to i32
  %spec.select = add i32 %count.08, %inc
  %indvars.iv.next = add nuw nsw i64 %indvars.iv, 1
  %exitcond.not = icmp eq i64 %indvars.iv.next, %wide.trip.count
  br i1 %exitcond.not, label %for.end, label %for.body, !llvm.loop !25

for.end:                                          ; preds = %for.body, %entry.split, %entry
  %.us-phi = phi i32 [ 0, %entry ], [ 0, %entry.split ], [ %spec.select, %for.body ]
  ret i32 %.us-phi
}